target datalayout = "e-m:e-p270:32:32-p271:32:32-p272:64:64-i64:64-i128:128-f80:128-n8:16:32:64-S128"
target triple = "x86_64-pc-linux-gnu"

@.str = private unnamed_addr constant [2 x i8] c" \00", align 1
@.str.87 = private unnamed_addr constant [44 x i8] c"%sData type: PMIX_INFO_DIRECTIVES\09Value: %s\00", align 1

; Function Attrs: nounwind uwtable
define i32 @pmix20_bfrop_print_infodirs(ptr noundef %0, ptr noundef %1, ptr noundef %2, i16 noundef zeroext %3) #0 {
  %5 = alloca i32, align 4
  %6 = alloca ptr, align 8
  %7 = alloca ptr, align 8
  %8 = alloca ptr, align 8
  %9 = alloca i16, align 2
  %10 = alloca ptr, align 8
  %11 = alloca ptr, align 8
  %12 = alloca i32, align 4
  store ptr %0, ptr %6, align 8, !tbaa !3
  store ptr %1, ptr %7, align 8, !tbaa !8
  store ptr %2, ptr %8, align 8, !tbaa !36
  store i16 %3, ptr %9, align 2, !tbaa !11
  call void @llvm.lifetime.start.p0(i64 8, ptr %10) #7
  call void @llvm.lifetime.start.p0(i64 8, ptr %11) #7
  %13 = load ptr, ptr %7, align 8, !tbaa !8
  %14 = icmp eq ptr null, %13
  br i1 %14, label %15, label %20

15:                                               ; preds = %4
  %16 = call i32 (ptr, ptr, ...) @asprintf(ptr noundef %10, ptr noundef @.str) #7
  %17 = icmp sgt i32 0, %16
  br i1 %17, label %18, label %19

18:                                               ; preds = %15
  store i32 -32, ptr %5, align 4
  store i32 1, ptr %12, align 4
  br label %47

19:                                               ; preds = %15
  br label %22

20:                                               ; preds = %4
  %21 = load ptr, ptr %7, align 8, !tbaa !8
  store ptr %21, ptr %10, align 8, !tbaa !8
  br label %22

22:                                               ; preds = %20, %19
  %23 = load ptr, ptr %8, align 8, !tbaa !36
  %24 = load i32, ptr %23, align 4, !tbaa !21
  %25 = call ptr @PMIx_Info_directives_string(i32 noundef %24)
  store ptr %25, ptr %11, align 8, !tbaa !8
  %26 = load ptr, ptr %6, align 8, !tbaa !3
  %27 = load ptr, ptr %10, align 8, !tbaa !8
  %28 = load ptr, ptr %11, align 8, !tbaa !8
  %29 = call i32 (ptr, ptr, ...) @asprintf(ptr noundef %26, ptr noundef @.str.87, ptr noundef %27, ptr noundef %28) #7
  %30 = icmp sgt i32 0, %29
  br i1 %30, label %31, label %39

31:                                               ; preds = %22
  %32 = load ptr, ptr %11, align 8, !tbaa !8
  call void @free(ptr noundef %32) #7
  %33 = load ptr, ptr %10, align 8, !tbaa !8
  %34 = load ptr, ptr %7, align 8, !tbaa !8
  %35 = icmp ne ptr %33, %34
  br i1 %35, label %36, label %38

36:                                               ; preds = %31
  %37 = load ptr, ptr %10, align 8, !tbaa !8
  call void @free(ptr noundef %37) #7
  br label %38

38:                                               ; preds = %36, %31
  store i32 -32, ptr %5, align 4
  store i32 1, ptr %12, align 4
  br label %47

39:                                               ; preds = %22
  %40 = load ptr, ptr %11, align 8, !tbaa !8
  call void @free(ptr noundef %40) #7
  %41 = load ptr, ptr %10, align 8, !tbaa !8
  %42 = load ptr, ptr %7, align 8, !tbaa !8
  %43 = icmp ne ptr %41, %42
  br i1 %43, label %44, label %46

44:                                               ; preds = %39
  %45 = load ptr, ptr %10, align 8, !tbaa !8
  call void @free(ptr noundef %45) #7
  br label %46

46:                                               ; preds = %44, %39
  store i32 0, ptr %5, align 4
  store i32 1, ptr %12, align 4
  br label %47

47:                                               ; preds = %46, %38, %18
  call void @llvm.lifetime.end.p0(i64 8, ptr %11) #7
  call void @llvm.lifetime.end.p0(i64 8, ptr %10) #7
  %48 = load i32, ptr %5, align 4
  ret i32 %48
}